target datalayout = "e-m:e-p270:32:32-p271:32:32-p272:64:64-i64:64-i128:128-f80:128-n8:16:32:64-S128"
target triple = "x86_64-pc-linux-gnu"

%"class.llvm::SmallVectorBase" = type { ptr, i32, i32 }
%"struct.llvm::ISD::ArgFlagsTy" = type { i64, i32, i32 }
%"class.llvm::MVT" = type { i16 }
%"class.llvm::Twine" = type <{ %"union.llvm::Twine::Child", %"union.llvm::Twine::Child", i8, i8, [6 x i8] }>
%"union.llvm::Twine::Child" = type { %struct.anon }
%struct.anon = type { ptr, i64 }
%"struct.llvm::ISD::InputArg" = type <{ %"struct.llvm::ISD::ArgFlagsTy", %"class.llvm::MVT", [6 x i8], %"struct.llvm::EVT", i8, [3 x i8], i32, i32, [4 x i8] }>
%"struct.llvm::EVT" = type { %"class.llvm::MVT", ptr }

@.str = private unnamed_addr constant [39 x i8] c"unable to allocate function argument #\00", align 1

; Function Attrs: mustprogress nounwind uwtable
define linkonce_odr hidden noundef ptr @_ZNK4llvm25SmallVectorTemplateCommonINS_3ISD8InputArgEvE5beginEv(ptr noundef nonnull align 8 dereferenceable(16) %0) #0 comdat align 2 {
  %2 = alloca ptr, align 8
  store ptr %0, ptr %2, align 8
  %3 = load ptr, ptr %2, align 8
  %4 = getelementptr inbounds nuw %"class.llvm::SmallVectorBase", ptr %3, i32 0, i32 0
  %5 = load ptr, ptr %4, align 8
  ret ptr %5
}

; Function Attrs: mustprogress nounwind uwtable
define linkonce_odr hidden void @_ZN4llvm5TwineC2Ej(ptr noundef nonnull align 8 dereferenceable(34) %0, i32 noundef %1) unnamed_addr #0 comdat align 2 {
  %3 = alloca ptr, align 8
  %4 = alloca i32, align 4
  store ptr %0, ptr %3, align 8
  store i32 %1, ptr %4, align 4
  %5 = load ptr, ptr %3, align 8
  %6 = getelementptr inbounds nuw %"class.llvm::Twine", ptr %5, i32 0, i32 2
  store i8 9, ptr %6, align 8
  %7 = getelementptr inbounds nuw %"class.llvm::Twine", ptr %5, i32 0, i32 3
  store i8 1, ptr %7, align 1
  %8 = load i32, ptr %4, align 4
  %9 = getelementptr inbounds nuw %"class.llvm::Twine", ptr %5, i32 0, i32 0
  store i32 %8, ptr %9, align 8
  ret void
}

; Function Attrs: mustprogress nounwind uwtable
define linkonce_odr hidden void @_ZN4llvm5TwineC2EPKc(ptr noundef nonnull align 8 dereferenceable(34) %0, ptr noundef %1) unnamed_addr #0 comdat align 2 {
  %3 = alloca ptr, align 8
  %4 = alloca ptr, align 8
  store ptr %0, ptr %3, align 8
  store ptr %1, ptr %4, align 8
  %5 = load ptr, ptr %3, align 8
  %6 = getelementptr inbounds nuw %"class.llvm::Twine", ptr %5, i32 0, i32 2
  store i8 1, ptr %6, align 8
  %7 = getelementptr inbounds nuw %"class.llvm::Twine", ptr %5, i32 0, i32 3
  store i8 1, ptr %7, align 1
  %8 = load ptr, ptr %4, align 8
  %9 = getelementptr inbounds i8, ptr %8, i64 0
  %10 = load i8, ptr %9, align 1
  %11 = sext i8 %10 to i32
  %12 = icmp ne i32 %11, 0
  br i1 %12, label %13, label %17

13:                                               ; preds = %2
  %14 = load ptr, ptr %4, align 8
  %15 = getelementptr inbounds nuw %"class.llvm::Twine", ptr %5, i32 0, i32 0
  store ptr %14, ptr %15, align 8
  %16 = getelementptr inbounds nuw %"class.llvm::Twine", ptr %5, i32 0, i32 2
  store i8 3, ptr %16, align 8
  br label %19

17:                                               ; preds = %2
  %18 = getelementptr inbounds nuw %"class.llvm::Twine", ptr %5, i32 0, i32 2
  store i8 1, ptr %18, align 8
  br label %19

19:                                               ; preds = %17, %13
  ret void
}

; Function Attrs: mustprogress nounwind uwtable
define linkonce_odr hidden noundef nonnull align 8 dereferenceable(52) ptr @_ZNK4llvm25SmallVectorTemplateCommonINS_3ISD8InputArgEvEixEm(ptr noundef nonnull align 8 dereferenceable(16) %0, i64 noundef %1) #0 comdat align 2 {
  %3 = alloca ptr, align 8
  %4 = alloca i64, align 8
  store ptr %0, ptr %3, align 8
  store i64 %1, ptr %4, align 8
  %5 = load ptr, ptr %3, align 8
  %6 = call noundef ptr @_ZNK4llvm25SmallVectorTemplateCommonINS_3ISD8InputArgEvE5beginEv(ptr noundef nonnull align 8 dereferenceable(16) %5)
  %7 = load i64, ptr %4, align 8
  %8 = getelementptr inbounds %"struct.llvm::ISD::InputArg", ptr %6, i64 %7
  ret ptr %8
}

; Function Attrs: mustprogress nounwind uwtable
define dso_local void @_ZN4llvm7CCState22AnalyzeFormalArgumentsERKNS_15SmallVectorImplINS_3ISD8InputArgEEEPFbjNS_3MVTES7_NS_11CCValAssign7LocInfoENS2_10ArgFlagsTyERS0_E(ptr noundef nonnull align 8 dereferenceable(420) %0, ptr noundef nonnull align 8 dereferenceable(16) %1, ptr noundef %2) #0 align 2 {
  %4 = alloca ptr, align 8
  %5 = alloca ptr, align 8
  %6 = alloca ptr, align 8
  %7 = alloca i32, align 4
  %8 = alloca i32, align 4
  %9 = alloca %"class.llvm::MVT", align 2
  %10 = alloca %"struct.llvm::ISD::ArgFlagsTy", align 4
  %11 = alloca %"class.llvm::MVT", align 2
  %12 = alloca %"class.llvm::MVT", align 2
  %13 = alloca %"struct.llvm::ISD::ArgFlagsTy", align 4
  %14 = alloca %"class.llvm::Twine", align 8
  %15 = alloca %"class.llvm::Twine", align 8
  %16 = alloca %"class.llvm::Twine", align 8
  store ptr %0, ptr %4, align 8
  store ptr %1, ptr %5, align 8
  store ptr %2, ptr %6, align 8
  %17 = load ptr, ptr %4, align 8
  %18 = load ptr, ptr %5, align 8
  %19 = call noundef i64 @_ZNK4llvm15SmallVectorBaseIjE4sizeEv(ptr noundef nonnull align 8 dereferenceable(16) %18)
  %20 = trunc i64 %19 to i32
  store i32 %20, ptr %7, align 4
  store i32 0, ptr %8, align 4
  br label %21

21:                                               ; preds = %50, %3
  %22 = load i32, ptr %8, align 4
  %23 = load i32, ptr %7, align 4
  %24 = icmp ne i32 %22, %23
  br i1 %24, label %25, label %53

25:                                               ; preds = %21
  %26 = load ptr, ptr %5, align 8
  %27 = load i32, ptr %8, align 4
  %28 = zext i32 %27 to i64
  %29 = call noundef nonnull align 8 dereferenceable(52) ptr @_ZNK4llvm25SmallVectorTemplateCommonINS_3ISD8InputArgEvEixEm(ptr noundef nonnull align 8 dereferenceable(16) %26, i64 noundef %28)
  %30 = getelementptr inbounds nuw %"struct.llvm::ISD::InputArg", ptr %29, i32 0, i32 1
  call void @llvm.memcpy.p0.p0.i64(ptr align 2 %9, ptr align 8 %30, i64 2, i1 false)
  %31 = load ptr, ptr %5, align 8
  %32 = load i32, ptr %8, align 4
  %33 = zext i32 %32 to i64
  %34 = call noundef nonnull align 8 dereferenceable(52) ptr @_ZNK4llvm25SmallVectorTemplateCommonINS_3ISD8InputArgEvEixEm(ptr noundef nonnull align 8 dereferenceable(16) %31, i64 noundef %33)
  %35 = getelementptr inbounds nuw %"struct.llvm::ISD::InputArg", ptr %34, i32 0, i32 0
  call void @llvm.memcpy.p0.p0.i64(ptr align 4 %10, ptr align 8 %35, i64 16, i1 false)
  %36 = load ptr, ptr %6, align 8
  %37 = load i32, ptr %8, align 4
  call void @llvm.memcpy.p0.p0.i64(ptr align 2 %11, ptr align 2 %9, i64 2, i1 false)
  call void @llvm.memcpy.p0.p0.i64(ptr align 2 %12, ptr align 2 %9, i64 2, i1 false)
  call void @llvm.memcpy.p0.p0.i64(ptr align 4 %13, ptr align 4 %10, i64 16, i1 false)
  %38 = getelementptr inbounds nuw %"class.llvm::MVT", ptr %11, i32 0, i32 0
  %39 = load i16, ptr %38, align 2
  %40 = getelementptr inbounds nuw %"class.llvm::MVT", ptr %12, i32 0, i32 0
  %41 = load i16, ptr %40, align 2
  %42 = getelementptr inbounds nuw { i64, i64 }, ptr %13, i32 0, i32 0
  %43 = load i64, ptr %42, align 4
  %44 = getelementptr inbounds nuw { i64, i64 }, ptr %13, i32 0, i32 1
  %45 = load i64, ptr %44, align 4
  %46 = call noundef zeroext i1 %36(i32 noundef %37, i16 %39, i16 %41, i32 noundef 0, i64 %43, i64 %45, ptr noundef nonnull align 8 dereferenceable(420) %17)
  br i1 %46, label %47, label %49

47:                                               ; preds = %25
  call void @_ZN4llvm5TwineC2EPKc(ptr noundef nonnull align 8 dereferenceable(34) %15, ptr noundef @.str)
  %48 = load i32, ptr %8, align 4
  call void @_ZN4llvm5TwineC2Ej(ptr noundef nonnull align 8 dereferenceable(34) %16, i32 noundef %48)
  call void @_ZN4llvmplERKNS_5TwineES2_(ptr dead_on_unwind writable sret(%"class.llvm::Twine") align 8 %14, ptr noundef nonnull align 8 dereferenceable(34) %15, ptr noundef nonnull align 8 dereferenceable(34) %16)
  call void @_ZN4llvm18report_fatal_errorERKNS_5TwineEb(ptr noundef nonnull align 8 dereferenceable(34) %14, i1 noundef zeroext true) #8
  unreachable

49:                                               ; preds = %25
  br label %50

50:                                               ; preds = %49
  %51 = load i32, ptr %8, align 4
  %52 = add i32 %51, 1
  store i32 %52, ptr %8, align 4
  br label %21, !llvm.loop !7

53:                                               ; preds = %21
  ret void
}