; Function Attrs: mustprogress nounwind uwtable
define dso_local void @_ZN4llvm7CCState22AnalyzeFormalArgumentsERKNS_15SmallVectorImplINS_3ISD8InputArgEEEPFbjNS_3MVTES7_NS_11CCValAssign7LocInfoENS2_10ArgFlagsTyERS0_E(ptr noundef nonnull align 8 dereferenceable(420) %0, ptr noundef nonnull align 8 dereferenceable(16) %1, ptr nocapture noundef readonly %2) local_unnamed_addr #0 align 2 {
  %4 = alloca %"class.llvm::Twine", align 8
  %5 = alloca %"class.llvm::Twine", align 8
  %6 = alloca %"class.llvm::Twine", align 8
  %7 = tail call noundef i64 @_ZNK4llvm15SmallVectorBaseIjE4sizeEv(ptr noundef nonnull align 8 dereferenceable(16) %1) #10
  %8 = and i64 %7, 4294967295
  %.not18 = icmp eq i64 %8, 0
  br i1 %.not18, label %._crit_edge, label %.lr.ph.preheader

.lr.ph.preheader:                                 ; preds = %3
  %9 = and i64 %7, 4294967295
  br label %.lr.ph

.lr.ph:                                           ; preds = %.lr.ph.preheader, %20
  %indvars.iv = phi i64 [ 0, %.lr.ph.preheader ], [ %indvars.iv.next, %20 ]
  %10 = load ptr, ptr %1, align 8
  %11 = getelementptr inbounds %"struct.llvm::ISD::InputArg", ptr %10, i64 %indvars.iv
  %12 = getelementptr inbounds nuw i8, ptr %11, i64 16
  %.sroa.05.0.copyload = load i16, ptr %12, align 8
  %.sroa.03.0.copyload = load i64, ptr %11, align 8
  %.sroa.24.0..sroa_idx = getelementptr inbounds i8, ptr %11, i64 8
  %.sroa.24.0.copyload = load i64, ptr %.sroa.24.0..sroa_idx, align 8
  %13 = trunc nuw i64 %indvars.iv to i32
  %14 = tail call noundef zeroext i1 %2(i32 noundef %13, i16 %.sroa.05.0.copyload, i16 %.sroa.05.0.copyload, i32 noundef 0, i64 %.sroa.03.0.copyload, i64 %.sroa.24.0.copyload, ptr noundef nonnull align 8 dereferenceable(420) %0) #10
  br i1 %14, label %15, label %20

15:                                               ; preds = %.lr.ph
  %16 = getelementptr inbounds nuw i8, ptr %5, i64 32
  %17 = getelementptr inbounds nuw i8, ptr %5, i64 33
  store i8 1, ptr %17, align 1
  store ptr @.str, ptr %5, align 8
  store i8 3, ptr %16, align 8
  %18 = getelementptr inbounds nuw i8, ptr %6, i64 32
  store i8 9, ptr %18, align 8
  %19 = getelementptr inbounds nuw i8, ptr %6, i64 33
  store i8 1, ptr %19, align 1
  store i32 %13, ptr %6, align 8
  call void @_ZN4llvmplERKNS_5TwineES2_(ptr dead_on_unwind nonnull writable sret(%"class.llvm::Twine") align 8 %4, ptr noundef nonnull align 8 dereferenceable(34) %5, ptr noundef nonnull align 8 dereferenceable(34) %6)
  call void @_ZN4llvm18report_fatal_errorERKNS_5TwineEb(ptr noundef nonnull align 8 dereferenceable(34) %4, i1 noundef zeroext true) #11
  unreachable

20:                                               ; preds = %.lr.ph
  %indvars.iv.next = add nuw nsw i64 %indvars.iv, 1
  %.not = icmp eq i64 %indvars.iv.next, %9
  br i1 %.not, label %._crit_edge, label %.lr.ph, !llvm.loop !11

._crit_edge:                                      ; preds = %20, %3
  ret void
}